; ModuleID = '31/1353.c'
source_filename = "31/1353.c"
target datalayout = "e-m:e-p270:32:32-p271:32:32-p272:64:64-i64:64-f80:128-n8:16:32:64-S128"
target triple = "x86_64-pc-linux-gnu"

%struct.student = type { [10 x i8], [20 x i8], i8, i32, [10 x i8], [20 x i8], %struct.student*, %struct.student* }

@.str = private unnamed_addr constant [3 x i8] c"%s\00", align 1
@.str.1 = private unnamed_addr constant [4 x i8] c"end\00", align 1
@.str.2 = private unnamed_addr constant [15 x i8] c"%s %c %d %s %s\00", align 1
@.str.3 = private unnamed_addr constant [19 x i8] c"%s %s %c %d %s %s\0A\00", align 1

; Function Attrs: noinline nounwind uwtable
define dso_local i32 @main() #0 {
  %1 = alloca i32, align 4
  %2 = alloca %struct.student*, align 8
  %3 = alloca %struct.student*, align 8
  %4 = alloca %struct.student*, align 8
  %5 = alloca %struct.student*, align 8
  %6 = alloca %struct.student*, align 8
  store i32 0, i32* %1, align 4
  %7 = call noalias i8* @malloc(i64 100) #4
  %8 = bitcast i8* %7 to %struct.student*
  store %struct.student* %8, %struct.student** %2, align 8
  store %struct.student* %8, %struct.student** %5, align 8
  store %struct.student* %8, %struct.student** %4, align 8
  %9 = load %struct.student*, %struct.student** %4, align 8
  %10 = getelementptr inbounds %struct.student, %struct.student* %9, i32 0, i32 7
  store %struct.student* null, %struct.student** %10, align 8
  br label %11

11:                                               ; preds = %51, %0
  %12 = load %struct.student*, %struct.student** %4, align 8
  %13 = getelementptr inbounds %struct.student, %struct.student* %12, i32 0, i32 0
  %14 = getelementptr inbounds [10 x i8], [10 x i8]* %13, i64 0, i64 0
  %15 = call i32 (i8*, ...) @__isoc99_scanf(i8* getelementptr inbounds ([3 x i8], [3 x i8]* @.str, i64 0, i64 0), i8* %14)
  %16 = load %struct.student*, %struct.student** %4, align 8
  %17 = getelementptr inbounds %struct.student, %struct.student* %16, i32 0, i32 0
  %18 = getelementptr inbounds [10 x i8], [10 x i8]* %17, i64 0, i64 0
  %19 = call i32 @strcmp(i8* %18, i8* getelementptr inbounds ([4 x i8], [4 x i8]* @.str.1, i64 0, i64 0)) #5
  %20 = icmp ne i32 %19, 0
  br i1 %20, label %21, label %44

21:                                               ; preds = %11
  %22 = load %struct.student*, %struct.student** %4, align 8
  %23 = getelementptr inbounds %struct.student, %struct.student* %22, i32 0, i32 1
  %24 = getelementptr inbounds [20 x i8], [20 x i8]* %23, i64 0, i64 0
  %25 = load %struct.student*, %struct.student** %4, align 8
  %26 = getelementptr inbounds %struct.student, %struct.student* %25, i32 0, i32 2
  %27 = load %struct.student*, %struct.student** %4, align 8
  %28 = getelementptr inbounds %struct.student, %struct.student* %27, i32 0, i32 3
  %29 = load %struct.student*, %struct.student** %4, align 8
  %30 = getelementptr inbounds %struct.student, %struct.student* %29, i32 0, i32 4
  %31 = getelementptr inbounds [10 x i8], [10 x i8]* %30, i64 0, i64 0
  %32 = load %struct.student*, %struct.student** %4, align 8
  %33 = getelementptr inbounds %struct.student, %struct.student* %32, i32 0, i32 5
  %34 = getelementptr inbounds [20 x i8], [20 x i8]* %33, i64 0, i64 0
  %35 = call i32 (i8*, ...) @__isoc99_scanf(i8* getelementptr inbounds ([15 x i8], [15 x i8]* @.str.2, i64 0, i64 0), i8* %24, i8* %26, i32* %28, i8* %31, i8* %34)
  %36 = call noalias i8* @malloc(i64 100) #4
  %37 = bitcast i8* %36 to %struct.student*
  store %struct.student* %37, %struct.student** %5, align 8
  %38 = load %struct.student*, %struct.student** %4, align 8
  %39 = getelementptr inbounds %struct.student, %struct.student* %38, i32 0, i32 6
  store %struct.student* %37, %struct.student** %39, align 8
  %40 = load %struct.student*, %struct.student** %4, align 8
  %41 = load %struct.student*, %struct.student** %5, align 8
  %42 = getelementptr inbounds %struct.student, %struct.student* %41, i32 0, i32 7
  store %struct.student* %40, %struct.student** %42, align 8
  %43 = load %struct.student*, %struct.student** %5, align 8
  store %struct.student* %43, %struct.student** %4, align 8
  br label %50

44:                                               ; preds = %11
  %45 = load %struct.student*, %struct.student** %4, align 8
  %46 = getelementptr inbounds %struct.student, %struct.student* %45, i32 0, i32 6
  store %struct.student* null, %struct.student** %46, align 8
  %47 = load %struct.student*, %struct.student** %4, align 8
  %48 = getelementptr inbounds %struct.student, %struct.student* %47, i32 0, i32 7
  %49 = load %struct.student*, %struct.student** %48, align 8
  store %struct.student* %49, %struct.student** %3, align 8
  br label %52

50:                                               ; preds = %21
  br label %51

51:                                               ; preds = %50
  br i1 true, label %11, label %52

52:                                               ; preds = %51, %44
  %53 = load %struct.student*, %struct.student** %3, align 8
  store %struct.student* %53, %struct.student** %6, align 8
  br label %54

54:                                               ; preds = %78, %52
  %55 = load %struct.student*, %struct.student** %6, align 8
  %56 = getelementptr inbounds %struct.student, %struct.student* %55, i32 0, i32 0
  %57 = getelementptr inbounds [10 x i8], [10 x i8]* %56, i64 0, i64 0
  %58 = load %struct.student*, %struct.student** %6, align 8
  %59 = getelementptr inbounds %struct.student, %struct.student* %58, i32 0, i32 1
  %60 = getelementptr inbounds [20 x i8], [20 x i8]* %59, i64 0, i64 0
  %61 = load %struct.student*, %struct.student** %6, align 8
  %62 = getelementptr inbounds %struct.student, %struct.student* %61, i32 0, i32 2
  %63 = load i8, i8* %62, align 2
  %64 = sext i8 %63 to i32
  %65 = load %struct.student*, %struct.student** %6, align 8
  %66 = getelementptr inbounds %struct.student, %struct.student* %65, i32 0, i32 3
  %67 = load i32, i32* %66, align 8
  %68 = load %struct.student*, %struct.student** %6, align 8
  %69 = getelementptr inbounds %struct.student, %struct.student* %68, i32 0, i32 4
  %70 = getelementptr inbounds [10 x i8], [10 x i8]* %69, i64 0, i64 0
  %71 = load %struct.student*, %struct.student** %6, align 8
  %72 = getelementptr inbounds %struct.student, %struct.student* %71, i32 0, i32 5
  %73 = getelementptr inbounds [20 x i8], [20 x i8]* %72, i64 0, i64 0
  %74 = call i32 (i8*, ...) @printf(i8* getelementptr inbounds ([19 x i8], [19 x i8]* @.str.3, i64 0, i64 0), i8* %57, i8* %60, i32 %64, i32 %67, i8* %70, i8* %73)
  %75 = load %struct.student*, %struct.student** %6, align 8
  %76 = getelementptr inbounds %struct.student, %struct.student* %75, i32 0, i32 7
  %77 = load %struct.student*, %struct.student** %76, align 8
  store %struct.student* %77, %struct.student** %6, align 8
  br label %78

78:                                               ; preds = %54
  %79 = load %struct.student*, %struct.student** %6, align 8
  %80 = icmp ne %struct.student* %79, null
  br i1 %80, label %54, label %81

81:                                               ; preds = %78
  ret i32 0
}

; Function Attrs: nounwind
declare dso_local noalias i8* @malloc(i64) #1

declare dso_local i32 @__isoc99_scanf(i8*, ...) #2

; Function Attrs: nounwind readonly
declare dso_local i32 @strcmp(i8*, i8*) #3

declare dso_local i32 @printf(i8*, ...) #2


!llvm.module.flags = !{!0}
!llvm.ident = !{!1}

!0 = !{i32 1, !"wchar_size", i32 4}
!1 = !{!"clang version 10.0.0-4ubuntu1 "}
